libfmcommon.so.1:_Z10getJobListB5cxx11v
libfmcommon.so.1:_Z11getAPIMutexv
libfmcommon.so.1:_Z11getJobMutexv
libfmcommon.so.1:_Z12getConfMutexv
libfmcommon.so.1:_Z12getConfigMapB5cxx11v
libfmcommon.so.1:_Z12getListMutexv
libfmcommon.so.1:_Z12getSockMutexv
libfmcommon.so.1:_Z12get_db_alarmR12CFmDBSessionR9sFmGetReqPv
libfmcommon.so.1:_Z13create_db_logR9sFmJobReq
libfmcommon.so.1:_Z13fmLoggingInitv
libfmcommon.so.1:_Z13get_db_alarmsR12CFmDBSessionR9sFmGetReqPv
libfmcommon.so.1:_Z14fm_log_requestRSt6vectorIcSaIcEEb
libfmcommon.so.1:_Z14fm_uuid_createRA255_c
libfmcommon.so.1:_Z14is_return_chari
libfmcommon.so.1:_Z15add_both_tablesPKciRSt3mapIiNSt7__cxx1112basic_stringIcSt11char_traitsIcESaIcEEESt4lessIiESaISt4pairIKiS7_EEERS1_IS7_iS8_IS7_ESaISA_IKS7_iEEE
libfmcommon.so.1:_Z15add_both_tablesiPKcRSt3mapIiNSt7__cxx1112basic_stringIcSt11char_traitsIcESaIcEEESt4lessIiESaISt4pairIKiS7_EEERS1_IS7_iS8_IS7_ESaISA_IKS7_iEEE
libfmcommon.so.1:_Z15fmGetCurrentHrtv
libfmcommon.so.1:_Z15fm_log_responseRSt6vectorIcSaIcEES2_b
libfmcommon.so.1:_Z15getTrapDestListB5cxx11v
libfmcommon.so.1:_Z16fmGetCurrentTimev
libfmcommon.so.1:_Z16fmLogAddEventLogP13SFmAlarmDataTb
libfmcommon.so.1:_Z16fm_alarm_to_listPK13SFmAlarmDataTRSt6vectorINSt7__cxx1112basic_stringIcSt11char_traitsIcESaIcEEESaIS8_EE
libfmcommon.so.1:_Z16fm_conf_set_filePKc
libfmcommon.so.1:_Z16fm_log_set_field14EFmLogIndexMapP13SFmAlarmDataTRNSt7__cxx1112basic_stringIcSt11char_traitsIcESaIcEEE
libfmcommon.so.1:_Z17FM_DB_UT_NAME_VALRNSt7__cxx1112basic_stringIcSt11char_traitsIcESaIcEEERKS4_S7_
libfmcommon.so.1:_Z17fm_error_from_intB5cxx119EFmErrorT
libfmcommon.so.1:_Z17fm_get_config_keyRNSt7__cxx1112basic_stringIcSt11char_traitsIcESaIcEEES5_
libfmcommon.so.1:_Z18fm_alarm_get_field16EFmAlarmIndexMapPK13SFmAlarmDataTRNSt7__cxx1112basic_stringIcSt11char_traitsIcESaIcEEE
libfmcommon.so.1:_Z18fm_alarm_set_field16EFmAlarmIndexMapP13SFmAlarmDataTRNSt7__cxx1112basic_stringIcSt11char_traitsIcESaIcEEE
libfmcommon.so.1:_Z18fm_alarm_to_stringPK13SFmAlarmDataTRNSt7__cxx1112basic_stringIcSt11char_traitsIcESaIcEEE
libfmcommon.so.1:_Z18getConnectionMutexv
libfmcommon.so.1:_Z18set_trap_dest_listNSt7__cxx1112basic_stringIcSt11char_traitsIcESaIcEEE
libfmcommon.so.1:_Z19FM_DB_UT_NAME_PARAMRNSt7__cxx1112basic_stringIcSt11char_traitsIcESaIcEEERKS4_S7_
libfmcommon.so.1:_Z19fm_get_log_max_sizev
libfmcommon.so.1:_Z19get_db_alarms_by_idR12CFmDBSessionR9sFmGetReqPv
libfmcommon.so.1:_Z20fm_alarm_from_stringRKNSt7__cxx1112basic_stringIcSt11char_traitsIcESaIcEEEP13SFmAlarmDataT
libfmcommon.so.1:_Z20fm_error_from_stringRKNSt7__cxx1112basic_stringIcSt11char_traitsIcESaIcEEE
libfmcommon.so.1:_Z21fm_handle_get_requestR12CFmDBSessionR9sFmGetReqPv
libfmcommon.so.1:_Z21fm_handle_job_requestR12CFmDBSessionR9sFmJobReq
libfmcommon.so.1:_Z21fm_snmp_util_gen_trapiR13SFmAlarmDataT
libfmcommon.so.1:_Z22fm_event_log_set_field19EFmEventLogIndexMapP13SFmAlarmDataTRNSt7__cxx1112basic_stringIcSt11char_traitsIcESaIcEEE
libfmcommon.so.1:_Z23fm_get_config_paramtersv
libfmcommon.so.1:_Z24fm_db_util_get_timestampPKcRy
libfmcommon.so.1:_Z24fm_db_util_int_to_stringB5cxx11i
libfmcommon.so.1:_Z24fm_db_util_string_to_intNSt7__cxx1112basic_stringIcSt11char_traitsIcESaIcEEE
libfmcommon.so.1:_Z25fm_alarm_filter_to_stringPK11AlarmFilterRNSt7__cxx1112basic_stringIcSt11char_traitsIcESaIcEEE
libfmcommon.so.1:_Z25fm_db_util_create_sessionPP12CFmDBSessionNSt7__cxx1112basic_stringIcSt11char_traitsIcESaIcEEE
libfmcommon.so.1:_Z25fm_db_util_get_row_countsR12CFmDBSessionPKcRi
libfmcommon.so.1:_Z26fm_db_util_build_sql_queryPKcS0_RNSt7__cxx1112basic_stringIcSt11char_traitsIcESaIcEEE
libfmcommon.so.1:_Z26fm_db_util_get_next_log_idR12CFmDBSessionRi
libfmcommon.so.1:_Z26fm_db_util_get_region_nameB5cxx11v
libfmcommon.so.1:_Z26fm_db_util_get_system_infoNSt7__cxx1112basic_stringIcSt11char_traitsIcESaIcEEES4_
libfmcommon.so.1:_Z26fm_db_util_get_system_nameB5cxx11v
libfmcommon.so.1:_Z26fm_formatted_str_to_vectorRKNSt7__cxx1112basic_stringIcSt11char_traitsIcESaIcEEERSt6vectorIS4_SaIS4_EE
libfmcommon.so.1:_Z27fm_alarm_filter_from_stringRKNSt7__cxx1112basic_stringIcSt11char_traitsIcESaIcEEEP11AlarmFilter
libfmcommon.so.1:_Z27fm_db_util_build_sql_deletePKcP11AlarmFilterRNSt7__cxx1112basic_stringIcSt11char_traitsIcESaIcEEE
libfmcommon.so.1:_Z27fm_db_util_build_sql_insertPKcRSt3mapINSt7__cxx1112basic_stringIcSt11char_traitsIcESaIcEEES7_St4lessIS7_ESaISt4pairIKS7_S7_EEER21fm_db_util_sql_params
libfmcommon.so.1:_Z27fm_db_util_build_sql_updatePKcRKNSt7__cxx1112basic_stringIcSt11char_traitsIcESaIcEEERSt3mapIS6_S6_St4lessIS6_ESaISt4pairIS7_S6_EEER21fm_db_util_sql_paramsh
libfmcommon.so.1:_Z28fm_msg_utils_prep_requet_msgRSt6vectorIcSaIcEE14EFmMsgActionsTPKvj
libfmcommon.so.1:_Z29fm_get_alarm_history_max_sizev
libfmcommon.so.1:_Z31fm_db_util_build_sql_delete_allPKcS0_RNSt7__cxx1112basic_stringIcSt11char_traitsIcESaIcEEE
libfmcommon.so.1:_Z31fm_db_util_build_sql_delete_rowPKciRNSt7__cxx1112basic_stringIcSt11char_traitsIcESaIcEEE
libfmcommon.so.1:_Z31fm_db_util_replace_single_quoteRKNSt7__cxx1112basic_stringIcSt11char_traitsIcESaIcEEE
libfmcommon.so.1:_Z32fm_db_util_make_timestamp_stringRNSt7__cxx1112basic_stringIcSt11char_traitsIcESaIcEEEyb
libfmcommon.so.1:_Z33fm_db_util_sync_event_suppressionv
libfmcommon.so.1:_Z37fm_db_util_event_log_build_sql_insertRSt3mapINSt7__cxx1112basic_stringIcSt11char_traitsIcESaIcEEES5_St4lessIS5_ESaISt4pairIKS5_S5_EEER21fm_db_util_sql_params
libfmcommon.so.1:_Z6appendRNSt7__cxx1112basic_stringIcSt11char_traitsIcESaIcEEERKS4_
libfmcommon.so.1:_Z7getListB5cxx11v
libfmcommon.so.1:_Z8fmLogEVTiSt3mapINSt7__cxx1112basic_stringIcSt11char_traitsIcESaIcEEES5_St4lessIS5_ESaISt4pairIKS5_S5_EEE
libfmcommon.so.1:_Z8fmLogMsgiPKcz
libfmcommon.so.1:_ZN10CFmDbAlarm10find_fieldB5cxx11EPKc
libfmcommon.so.1:_ZN10CFmDbAlarm11create_dataEP13SFmAlarmDataT
libfmcommon.so.1:_ZN10CFmDbAlarm11export_dataEP13SFmAlarmDataT
libfmcommon.so.1:_ZN10CFmDbAlarm11export_dataERSt3mapINSt7__cxx1112basic_stringIcSt11char_traitsIcESaIcEEES6_St4lessIS6_ESaISt4pairIKS6_S6_EEE
libfmcommon.so.1:_ZN10CFmDbAlarm11import_dataERSt3mapINSt7__cxx1112basic_stringIcSt11char_traitsIcESaIcEEES6_St4lessIS6_ESaISt4pairIKS6_S6_EEE
libfmcommon.so.1:_ZN10CFmDbAlarm22to_formatted_db_stringB5cxx11EPPKcm
libfmcommon.so.1:_ZN10CFmDbAlarm5printEv
libfmcommon.so.1:_ZN12CFmDBSession10check_connEv
libfmcommon.so.1:_ZN12CFmDBSession10disconnectEv
libfmcommon.so.1:_ZN12CFmDBSession10params_cmdER21fm_db_util_sql_params
libfmcommon.so.1:_ZN12CFmDBSession20get_parameter_statusEPKc
libfmcommon.so.1:_ZN12CFmDBSession3cmdEPKcb
libfmcommon.so.1:_ZN12CFmDBSession5queryEPKcRSt6vectorISt3mapINSt7__cxx1112basic_stringIcSt11char_traitsIcESaIcEEES9_St4lessIS9_ESaISt4pairIKS9_S9_EEESaISG_EE
libfmcommon.so.1:_ZN12CFmDBSession7connectEPKc
libfmcommon.so.1:_ZN12CFmDBSessionC1Ev
libfmcommon.so.1:_ZN12CFmDBSessionC2Ev
libfmcommon.so.1:_ZN12CFmDBSessionD1Ev
libfmcommon.so.1:_ZN12CFmDBSessionD2Ev
libfmcommon.so.1:_ZN13CFmDbEventLog10find_fieldB5cxx11EPKc
libfmcommon.so.1:_ZN13CFmDbEventLog11create_dataEP13SFmAlarmDataT
libfmcommon.so.1:_ZN13CFmDbEventLog11export_dataEP13SFmAlarmDataT
libfmcommon.so.1:_ZN13CFmDbEventLog11export_dataERSt3mapINSt7__cxx1112basic_stringIcSt11char_traitsIcESaIcEEES6_St4lessIS6_ESaISt4pairIKS6_S6_EEE
libfmcommon.so.1:_ZN13CFmDbEventLog11import_dataERSt3mapINSt7__cxx1112basic_stringIcSt11char_traitsIcESaIcEEES6_St4lessIS6_ESaISt4pairIKS6_S6_EEE
libfmcommon.so.1:_ZN13CFmDbEventLog11init_tablesEv
libfmcommon.so.1:_ZN13CFmDbEventLog15add_both_tablesEPKciRSt3mapIiNSt7__cxx1112basic_stringIcSt11char_traitsIcESaIcEEESt4lessIiESaISt4pairIKiS8_EEERS2_IS8_iS9_IS8_ESaISB_IKS8_iEEE
libfmcommon.so.1:_ZN13CFmDbEventLog22to_formatted_db_stringB5cxx11EPPKcm
libfmcommon.so.1:_ZN13CFmDbEventLog5printEv
libfmcommon.so.1:_ZN13CFmDbEventLog6appendERNSt7__cxx1112basic_stringIcSt11char_traitsIcESaIcEEERKS5_
libfmcommon.so.1:_ZN13CFmSockAddr_s8set_typeEj
libfmcommon.so.1:_ZN14FmSocketServer11find_bad_fdEv
libfmcommon.so.1:_ZN14FmSocketServer11good_socketEi
libfmcommon.so.1:_ZN14FmSocketServer11server_sockEPKcii
libfmcommon.so.1:_ZN14FmSocketServer12server_resetEv
libfmcommon.so.1:_ZN14FmSocketServer13to_sock_arrayERSt6vectorIiSaIiEE
libfmcommon.so.1:_ZN14FmSocketServer18handle_socket_dataEiRSt6vectorIcSaIcEER12CFmDBSession
libfmcommon.so.1:_ZN14FmSocketServer3runEv
libfmcommon.so.1:_ZN14FmSocketServer6acceptEv
libfmcommon.so.1:_ZN14FmSocketServer9rm_socketEi
libfmcommon.so.1:_ZN14FmSocketServerD0Ev
libfmcommon.so.1:_ZN14FmSocketServerD1Ev
libfmcommon.so.1:_ZN14FmSocketServerD2Ev
libfmcommon.so.1:_ZN19CFmDbAlarmOperation10get_alarmsER12CFmDBSessionPKcRSt6vectorISt3mapINSt7__cxx1112basic_stringIcSt11char_traitsIcESaIcEEESB_St4lessISB_ESaISt4pairIKSB_SB_EEESaISI_EE
libfmcommon.so.1:_ZN19CFmDbAlarmOperation11get_historyER12CFmDBSessionRSt6vectorISt3mapINSt7__cxx1112basic_stringIcSt11char_traitsIcESaIcEEES9_St4lessIS9_ESaISt4pairIKS9_S9_EEESaISG_EE
libfmcommon.so.1:_ZN19CFmDbAlarmOperation12create_alarmER12CFmDBSessionR10CFmDbAlarm
libfmcommon.so.1:_ZN19CFmDbAlarmOperation12delete_alarmER12CFmDBSessionR11AlarmFilter
libfmcommon.so.1:_ZN19CFmDbAlarmOperation13delete_alarmsER12CFmDBSessionPKc
libfmcommon.so.1:_ZN19CFmDbAlarmOperation14get_all_alarmsER12CFmDBSessionPP13SFmAlarmDataTPm
libfmcommon.so.1:_ZN19CFmDbAlarmOperation16get_alarms_by_idER12CFmDBSessionPKcRSt6vectorISt3mapINSt7__cxx1112basic_stringIcSt11char_traitsIcESaIcEEESB_St4lessISB_ESaISt4pairIKSB_SB_EEESaISI_EE
libfmcommon.so.1:_ZN19CFmDbAlarmOperation17add_alarm_historyER12CFmDBSessionR13SFmAlarmDataTb
libfmcommon.so.1:_ZN19CFmDbAlarmOperation18mask_unmask_alarmsER12CFmDBSessionR13SFmAlarmDataTb
libfmcommon.so.1:_ZN19CFmDbAlarmOperation22get_all_history_alarmsER12CFmDBSessionPP13SFmAlarmDataTPm
libfmcommon.so.1:_ZN19CFmDbAlarmOperation9get_alarmER12CFmDBSessionR11AlarmFilterRSt6vectorISt3mapINSt7__cxx1112basic_stringIcSt11char_traitsIcESaIcEEESB_St4lessISB_ESaISt4pairIKSB_SB_EEESaISI_EE
libfmcommon.so.1:_ZN22CFmDbEventLogOperation13get_event_logER12CFmDBSessionR11AlarmFilterRSt6vectorISt3mapINSt7__cxx1112basic_stringIcSt11char_traitsIcESaIcEEESB_St4lessISB_ESaISt4pairIKSB_SB_EEESaISI_EE
libfmcommon.so.1:_ZN22CFmDbEventLogOperation14get_event_logsER12CFmDBSessionRSt6vectorISt3mapINSt7__cxx1112basic_stringIcSt11char_traitsIcESaIcEEES9_St4lessIS9_ESaISt4pairIKS9_S9_EEESaISG_EE
libfmcommon.so.1:_ZN22CFmDbEventLogOperation16create_event_logER12CFmDBSessionR13CFmDbEventLog
libfmcommon.so.1:_ZN22CFmDbEventLogOperation18get_all_event_logsER12CFmDBSessionPP13SFmAlarmDataTPm
libfmcommon.so.1:_ZN22CFmDbEventLogOperation20get_event_logs_by_idER12CFmDBSessionPKcRSt6vectorISt3mapINSt7__cxx1112basic_stringIcSt11char_traitsIcESaIcEEESB_St4lessISB_ESaISt4pairIKSB_SB_EEESaISI_EE
libfmcommon.so.1:_ZN23FmSocketServerProcessor13send_responseEiP10SFmMsgHdrTPvm
libfmcommon.so.1:_ZN23FmSocketServerProcessor16handle_get_faultEiP10SFmMsgHdrTRSt6vectorIcSaIcEE
libfmcommon.so.1:_ZN23FmSocketServerProcessor17handle_get_faultsEiP10SFmMsgHdrTRSt6vectorIcSaIcEE
libfmcommon.so.1:_ZN23FmSocketServerProcessor18handle_socket_dataEiRSt6vectorIcSaIcEER12CFmDBSession
libfmcommon.so.1:_ZN23FmSocketServerProcessor19handle_create_faultEiP10SFmMsgHdrTRSt6vectorIcSaIcEER12CFmDBSession
libfmcommon.so.1:_ZN23FmSocketServerProcessor19handle_delete_faultEiP10SFmMsgHdrTRSt6vectorIcSaIcEER12CFmDBSession
libfmcommon.so.1:_ZN23FmSocketServerProcessor20handle_delete_faultsEiP10SFmMsgHdrTRSt6vectorIcSaIcEER12CFmDBSession
libfmcommon.so.1:_ZN23FmSocketServerProcessor23handle_get_faults_by_idEiP10SFmMsgHdrTRSt6vectorIcSaIcEE
libfmcommon.so.1:_ZN28CFmEventSuppressionOperation20get_event_suppressedER12CFmDBSessionR13SFmAlarmDataTRb
libfmcommon.so.1:_ZN28CFmEventSuppressionOperation23set_table_notify_listenER12CFmDBSession
libfmcommon.so.1:_ZN28CFmEventSuppressionOperation28get_single_event_suppressionER12CFmDBSessionPKcRSt6vectorISt3mapINSt7__cxx1112basic_stringIcSt11char_traitsIcESaIcEEESB_St4lessISB_ESaISt4pairIKSB_SB_EEESaISI_EE
libfmcommon.so.1:_ZN7CfmFile4openEPKcNS_11eFileAccessEb
libfmcommon.so.1:_ZN7CfmFile5closeEv
libfmcommon.so.1:_ZN7CfmFile9read_lineERNSt7__cxx1112basic_stringIcSt11char_traitsIcESaIcEEE
libfmcommon.so.1:_ZN8CFmMutex4lockEv
libfmcommon.so.1:_ZN8CFmMutex6unlockEv
libfmcommon.so.1:_ZN8CFmMutexC1Ev
libfmcommon.so.1:_ZN8CFmMutexC2Ev
libfmcommon.so.1:_ZN8CFmMutexD1Ev
libfmcommon.so.1:_ZN8CFmMutexD2Ev
libfmcommon.so.1:_ZN8CFmTimer9gethrtimeEv
libfmcommon.so.1:_ZN9CFmSocket11read_packetERSt6vectorIcSaIcEE
libfmcommon.so.1:_ZN9CFmSocket11read_packetEiRSt6vectorIcSaIcEE
libfmcommon.so.1:_ZN9CFmSocket11select_readEiiRb
libfmcommon.so.1:_ZN9CFmSocket12write_packetEiPKvl
libfmcommon.so.1:_ZN9CFmSocket12write_packetEiRKSt6vectorIcSaIcEE
libfmcommon.so.1:_ZN9CFmSocket13create_socketEv
libfmcommon.so.1:_ZN9CFmSocket4readEPvRl
libfmcommon.so.1:_ZN9CFmSocket4readEiPvRl
libfmcommon.so.1:_ZN9CFmSocket5closeEv
libfmcommon.so.1:_ZN9CFmSocket5writeEPKvl
libfmcommon.so.1:_ZN9CFmSocket5writeEiPKvl
libfmcommon.so.1:_ZN9CFmSocket6selectEPiiS0_iiiRb
libfmcommon.so.1:_ZN9CFmSocket7connectEPKcii
libfmcommon.so.1:_ZN9CFmSocket8recvfromEPvRlR13CFmSockAddr_s
libfmcommon.so.1:_ZN9CFmSocketC1Ev
libfmcommon.so.1:_ZN9CFmSocketC2Ev
libfmcommon.so.1:_ZN9CFmSocketD1Ev
libfmcommon.so.1:_ZN9CFmSocketD2Ev
libfmcommon.so.1:fmCreateThread
libfmcommon.so.1:fmEventSuppressionMonitorThread
libfmcommon.so.1:fmJobHandlerThread
libfmcommon.so.1:fmRegHandlerThread
libfmcommon.so.1:fmThreadSleep
libfmcommon.so.1:fm_clear_all
libfmcommon.so.1:fm_clear_all_async
libfmcommon.so.1:fm_clear_fault
libfmcommon.so.1:fm_clear_fault_async
libfmcommon.so.1:fm_get_fault
libfmcommon.so.1:fm_get_faults
libfmcommon.so.1:fm_get_faults_by_id
libfmcommon.so.1:fm_handle_event_suppress_changes
libfmcommon.so.1:fm_init_lib
libfmcommon.so.1:fm_server_create
libfmcommon.so.1:fm_set_fault
libfmcommon.so.1:fm_set_fault_async
libfmcommon.so.1:fm_snmp_util_create_session
libfmcommon.so.1:fm_snmp_util_destroy_session
libfmcommon.so.1:fm_snmp_util_get_all_alarms
libfmcommon.so.1:fm_snmp_util_get_all_event_logs
